target datalayout = "e-m:e-p270:32:32-p271:32:32-p272:64:64-i64:64-i128:128-f80:128-n8:16:32:64-S128"
target triple = "x86_64-pc-linux-gnu"

%"class.llvm::SmallVectorBase" = type { ptr, i32, i32 }
%"class.std::__cxx11::basic_string" = type { %"struct.std::__cxx11::basic_string<char>::_Alloc_hider", i64, %union.anon }
%"struct.std::__cxx11::basic_string<char>::_Alloc_hider" = type { ptr }
%union.anon = type { i64, [8 x i8] }
%"class.clang::driver::ToolChain" = type { ptr, ptr, %"class.llvm::Triple", ptr, ptr, i32, i32, %"class.llvm::SmallVector", %"class.llvm::SmallVector", %"class.llvm::SmallVector", %"class.std::unique_ptr", %"class.std::unique_ptr", %"class.std::unique_ptr", %"class.std::unique_ptr", %"class.std::unique_ptr", %"class.std::unique_ptr", %"class.std::unique_ptr", %"class.std::unique_ptr", %"class.std::unique_ptr", i8, %"class.std::unique_ptr.2", %"class.llvm::Triple", %"class.std::optional", %"class.std::optional.10", %"class.std::optional.18", %"class.clang::driver::MultilibSet", %"class.llvm::SmallVector.34" }
%"class.llvm::SmallVector" = type { %"class.llvm::SmallVectorImpl", %"struct.llvm::SmallVectorStorage" }
%"class.llvm::SmallVectorImpl" = type { %"class.llvm::SmallVectorTemplateBase" }
%"class.llvm::SmallVectorTemplateBase" = type { %"class.llvm::SmallVectorTemplateCommon" }
%"class.llvm::SmallVectorTemplateCommon" = type { %"class.llvm::SmallVectorBase" }
%"struct.llvm::SmallVectorStorage" = type { [512 x i8] }
%"class.std::unique_ptr" = type { %"struct.std::__uniq_ptr_data" }
%"struct.std::__uniq_ptr_data" = type { %"class.std::__uniq_ptr_impl" }
%"class.std::__uniq_ptr_impl" = type { %"class.std::tuple" }
%"class.std::tuple" = type { %"struct.std::_Tuple_impl" }
%"struct.std::_Tuple_impl" = type { %"struct.std::_Head_base.1" }
%"struct.std::_Head_base.1" = type { ptr }
%"class.std::unique_ptr.2" = type { %"struct.std::__uniq_ptr_data.3" }
%"struct.std::__uniq_ptr_data.3" = type { %"class.std::__uniq_ptr_impl.4" }
%"class.std::__uniq_ptr_impl.4" = type { %"class.std::tuple.5" }
%"class.std::tuple.5" = type { %"struct.std::_Tuple_impl.6" }
%"struct.std::_Tuple_impl.6" = type { %"struct.std::_Head_base.9" }
%"struct.std::_Head_base.9" = type { ptr }
%"class.llvm::Triple" = type { %"class.std::__cxx11::basic_string", i32, i32, i32, i32, i32, i32 }
%"class.std::optional" = type { %"struct.std::_Optional_base" }
%"struct.std::_Optional_base" = type { %"struct.std::_Optional_payload" }
%"struct.std::_Optional_payload" = type { %"struct.std::_Optional_payload_base.base", [3 x i8] }
%"struct.std::_Optional_payload_base.base" = type <{ %"union.std::_Optional_payload_base<clang::driver::ToolChain::CXXStdlibType>::_Storage", i8 }>
%"union.std::_Optional_payload_base<clang::driver::ToolChain::CXXStdlibType>::_Storage" = type { i32 }
%"class.std::optional.10" = type { %"struct.std::_Optional_base.11" }
%"struct.std::_Optional_base.11" = type { %"struct.std::_Optional_payload.13" }
%"struct.std::_Optional_payload.13" = type { %"struct.std::_Optional_payload_base.base.15", [3 x i8] }
%"struct.std::_Optional_payload_base.base.15" = type <{ %"union.std::_Optional_payload_base<clang::driver::ToolChain::RuntimeLibType>::_Storage", i8 }>
%"union.std::_Optional_payload_base<clang::driver::ToolChain::RuntimeLibType>::_Storage" = type { i32 }
%"class.std::optional.18" = type { %"struct.std::_Optional_base.19" }
%"struct.std::_Optional_base.19" = type { %"struct.std::_Optional_payload.21" }
%"struct.std::_Optional_payload.21" = type { %"struct.std::_Optional_payload_base.base.23", [3 x i8] }
%"struct.std::_Optional_payload_base.base.23" = type <{ %"union.std::_Optional_payload_base<clang::driver::ToolChain::UnwindLibType>::_Storage", i8 }>
%"union.std::_Optional_payload_base<clang::driver::ToolChain::UnwindLibType>::_Storage" = type { i32 }
%"class.clang::driver::MultilibSet" = type { %"class.std::vector", %"class.std::vector.29", %"class.std::function", %"class.std::function" }
%"class.std::vector" = type { %"struct.std::_Vector_base" }
%"struct.std::_Vector_base" = type { %"struct.std::_Vector_base<clang::driver::Multilib, std::allocator<clang::driver::Multilib>>::_Vector_impl" }
%"struct.std::_Vector_base<clang::driver::Multilib, std::allocator<clang::driver::Multilib>>::_Vector_impl" = type { %"struct.std::_Vector_base<clang::driver::Multilib, std::allocator<clang::driver::Multilib>>::_Vector_impl_data" }
%"struct.std::_Vector_base<clang::driver::Multilib, std::allocator<clang::driver::Multilib>>::_Vector_impl_data" = type { ptr, ptr, ptr }
%"class.std::vector.29" = type { %"struct.std::_Vector_base.30" }
%"struct.std::_Vector_base.30" = type { %"struct.std::_Vector_base<clang::driver::MultilibSet::FlagMatcher, std::allocator<clang::driver::MultilibSet::FlagMatcher>>::_Vector_impl" }
%"struct.std::_Vector_base<clang::driver::MultilibSet::FlagMatcher, std::allocator<clang::driver::MultilibSet::FlagMatcher>>::_Vector_impl" = type { %"struct.std::_Vector_base<clang::driver::MultilibSet::FlagMatcher, std::allocator<clang::driver::MultilibSet::FlagMatcher>>::_Vector_impl_data" }
%"struct.std::_Vector_base<clang::driver::MultilibSet::FlagMatcher, std::allocator<clang::driver::MultilibSet::FlagMatcher>>::_Vector_impl_data" = type { ptr, ptr, ptr }
%"class.std::function" = type { %"class.std::_Function_base", ptr }
%"class.std::_Function_base" = type { %"union.std::_Any_data", ptr }
%"union.std::_Any_data" = type { %"union.std::_Nocopy_types" }
%"union.std::_Nocopy_types" = type { { i64, i64 } }
%"class.llvm::SmallVector.34" = type { %"class.llvm::SmallVectorImpl.35", %"struct.llvm::SmallVectorStorage.38" }
%"class.llvm::SmallVectorImpl.35" = type { %"class.llvm::SmallVectorTemplateBase.36" }
%"class.llvm::SmallVectorTemplateBase.36" = type { %"class.llvm::SmallVectorTemplateCommon.37" }
%"class.llvm::SmallVectorTemplateCommon.37" = type { %"class.llvm::SmallVectorBase" }
%"struct.llvm::SmallVectorStorage.38" = type { [192 x i8] }

; Function Attrs: mustprogress nounwind uwtable
define linkonce_odr hidden noundef i32 @_ZNK4llvm6Triple7getArchEv(ptr noundef nonnull align 8 dereferenceable(56) %0) #0 comdat align 2 {
  %2 = alloca ptr, align 8
  store ptr %0, ptr %2, align 8
  %3 = load ptr, ptr %2, align 8
  %4 = getelementptr inbounds nuw %"class.llvm::Triple", ptr %3, i32 0, i32 1
  %5 = load i32, ptr %4, align 8
  ret i32 %5
}

; Function Attrs: mustprogress nounwind uwtable
define linkonce_odr hidden noundef i32 @_ZNK5clang6driver9ToolChain7getArchEv(ptr noundef nonnull align 8 dereferenceable(2168) %0) #0 comdat align 2 {
  %2 = alloca ptr, align 8
  store ptr %0, ptr %2, align 8
  %3 = load ptr, ptr %2, align 8
  %4 = getelementptr inbounds nuw %"class.clang::driver::ToolChain", ptr %3, i32 0, i32 2
  %5 = call noundef i32 @_ZNK4llvm6Triple7getArchEv(ptr noundef nonnull align 8 dereferenceable(56) %4)
  ret i32 %5
}

; Function Attrs: mustprogress nounwind uwtable
define hidden noundef i32 @_ZNK5clang6driver10toolchains11Generic_GCC26getDefaultUnwindTableLevelERKN4llvm3opt7ArgListE(ptr noundef nonnull align 8 dereferenceable(4488) %0, ptr noundef nonnull align 8 dereferenceable(176) %1) unnamed_addr #0 align 2 {
  %3 = alloca i32, align 4
  %4 = alloca ptr, align 8
  %5 = alloca ptr, align 8
  store ptr %0, ptr %4, align 8
  store ptr %1, ptr %5, align 8
  %6 = load ptr, ptr %4, align 8
  %7 = call noundef i32 @_ZNK5clang6driver9ToolChain7getArchEv(ptr noundef nonnull align 8 dereferenceable(2168) %6)
  switch i32 %7, label %9 [
    i32 3, label %8
    i32 4, label %8
    i32 21, label %8
    i32 22, label %8
    i32 23, label %8
    i32 24, label %8
    i32 27, label %8
    i32 28, label %8
    i32 37, label %8
    i32 38, label %8
  ]

8:                                                ; preds = %2, %2, %2, %2, %2, %2, %2, %2, %2, %2
  store i32 2, ptr %3, align 4
  br label %10

9:                                                ; preds = %2
  store i32 0, ptr %3, align 4
  br label %10

10:                                               ; preds = %9, %8
  %11 = load i32, ptr %3, align 4
  ret i32 %11
}