; Function Attrs: mustprogress nofree norecurse nosync nounwind willreturn memory(argmem: read) uwtable
define hidden noundef range(i32 0, 3) i32 @_ZNK5clang6driver10toolchains11Generic_GCC26getDefaultUnwindTableLevelERKN4llvm3opt7ArgListE(ptr nocapture noundef nonnull readonly align 8 dereferenceable(4488) %0, ptr nocapture nonnull readnone align 8 %1) unnamed_addr #8 align 2 {
  %3 = getelementptr inbounds i8, ptr %0, i64 48
  %4 = load i32, ptr %3, align 8
  switch i32 %4, label %5 [
    i32 3, label %6
    i32 4, label %6
    i32 21, label %6
    i32 22, label %6
    i32 23, label %6
    i32 24, label %6
    i32 27, label %6
    i32 28, label %6
    i32 37, label %6
    i32 38, label %6
  ]

5:                                                ; preds = %2
  br label %6

6:                                                ; preds = %2, %2, %2, %2, %2, %2, %2, %2, %2, %2, %5
  %.0 = phi i32 [ 0, %5 ], [ 2, %2 ], [ 2, %2 ], [ 2, %2 ], [ 2, %2 ], [ 2, %2 ], [ 2, %2 ], [ 2, %2 ], [ 2, %2 ], [ 2, %2 ], [ 2, %2 ]
  ret i32 %.0
}